; Function Attrs: null_pointer_is_valid sspstrong uwtable
define hidden void @proto_register_kink() local_unnamed_addr #0 {
  %1 = tail call i32 @proto_register_protocol(ptr noundef nonnull @.str.48, ptr noundef nonnull @.str.49, ptr noundef nonnull @.str.50)
  store i32 %1, ptr @proto_kink, align 4
  tail call void @proto_register_field_array(i32 noundef %1, ptr noundef nonnull @proto_register_kink.hf, i32 noundef 25)
  tail call void @proto_register_subtree_array(ptr noundef nonnull @proto_register_kink.ett, i32 noundef 12)
  %2 = load i32, ptr @proto_kink, align 4
  %3 = tail call ptr @expert_register_protocol(i32 noundef %2)
  tail call void @expert_register_field_array(ptr noundef %3, ptr noundef nonnull @proto_register_kink.ei, i32 noundef 2)
  %4 = load i32, ptr @proto_kink, align 4
  %5 = tail call ptr @register_dissector(ptr noundef nonnull @.str.50, ptr noundef nonnull @dissect_kink, i32 noundef %4)
  store ptr %5, ptr @kink_handle, align 8
  ret void
}